; ModuleID = 'source-C-CXX/33/3015.cpp'
source_filename = "source-C-CXX/33/3015.cpp"
target datalayout = "e-m:e-p270:32:32-p271:32:32-p272:64:64-i64:64-f80:128-n8:16:32:64-S128"
target triple = "x86_64-pc-linux-gnu"

%"class.std::ios_base::Init" = type { i8 }
%"class.std::basic_istream" = type { i32 (...)**, i64, %"class.std::basic_ios" }
%"class.std::basic_ios" = type { %"class.std::ios_base", %"class.std::basic_ostream"*, i8, i8, %"class.std::basic_streambuf"*, %"class.std::ctype"*, %"class.std::num_put"*, %"class.std::num_get"* }
%"class.std::ios_base" = type { i32 (...)**, i64, i64, i32, i32, i32, %"struct.std::ios_base::_Callback_list"*, %"struct.std::ios_base::_Words", [8 x %"struct.std::ios_base::_Words"], i32, %"struct.std::ios_base::_Words"*, %"class.std::locale" }
%"struct.std::ios_base::_Callback_list" = type { %"struct.std::ios_base::_Callback_list"*, void (i32, %"class.std::ios_base"*, i32)*, i32, i32 }
%"struct.std::ios_base::_Words" = type { i8*, i64 }
%"class.std::locale" = type { %"class.std::locale::_Impl"* }
%"class.std::locale::_Impl" = type { i32, %"class.std::locale::facet"**, i64, %"class.std::locale::facet"**, i8** }
%"class.std::locale::facet" = type <{ i32 (...)**, i32, [4 x i8] }>
%"class.std::basic_ostream" = type { i32 (...)**, %"class.std::basic_ios" }
%"class.std::basic_streambuf" = type { i32 (...)**, i8*, i8*, i8*, i8*, i8*, i8*, %"class.std::locale" }
%"class.std::ctype" = type <{ %"class.std::locale::facet.base", [4 x i8], %struct.__locale_struct*, i8, [7 x i8], i32*, i32*, i16*, i8, [256 x i8], [256 x i8], i8, [6 x i8] }>
%"class.std::locale::facet.base" = type <{ i32 (...)**, i32 }>
%struct.__locale_struct = type { [13 x %struct.__locale_data*], i16*, i32*, i32*, [13 x i8*] }
%struct.__locale_data = type opaque
%"class.std::num_put" = type { %"class.std::locale::facet.base", [4 x i8] }
%"class.std::num_get" = type { %"class.std::locale::facet.base", [4 x i8] }

@_ZStL8__ioinit = internal global %"class.std::ios_base::Init" zeroinitializer, align 1
@__dso_handle = external hidden global i8
@_ZSt3cin = external global %"class.std::basic_istream", align 8
@_ZSt4cout = external global %"class.std::basic_ostream", align 8
@.str = private unnamed_addr constant [4 x i8] c"End\00", align 1
@.str.1 = private unnamed_addr constant [6 x i8] c"*3+1=\00", align 1
@.str.2 = private unnamed_addr constant [4 x i8] c"/2=\00", align 1
@llvm.global_ctors = appending global [1 x { i32, void ()*, i8* }] [{ i32, void ()*, i8* } { i32 65535, void ()* @_GLOBAL__sub_I_3015.cpp, i8* null }]

declare void @_ZNSt8ios_base4InitC1Ev(%"class.std::ios_base::Init"* nonnull align 1 dereferenceable(1)) unnamed_addr #0

; Function Attrs: nounwind
declare void @_ZNSt8ios_base4InitD1Ev(%"class.std::ios_base::Init"* nonnull align 1 dereferenceable(1)) unnamed_addr #1

; Function Attrs: nofree nounwind
declare i32 @__cxa_atexit(void (i8*)*, i8*, i8*) local_unnamed_addr #2

; Function Attrs: mustprogress norecurse sspstrong uwtable
define dso_local i32 @main() local_unnamed_addr #3 {
  %1 = alloca i32, align 4
  %2 = bitcast i32* %1 to i8*
  call void @llvm.lifetime.start.p0i8(i64 4, i8* nonnull %2) #7
  %3 = call nonnull align 8 dereferenceable(16) %"class.std::basic_istream"* @_ZNSirsERi(%"class.std::basic_istream"* nonnull align 8 dereferenceable(16) @_ZSt3cin, i32* nonnull align 4 dereferenceable(4) %1)
  %4 = load i32, i32* %1, align 4, !tbaa !5
  %5 = icmp eq i32 %4, 1
  br i1 %5, label %6, label %31

6:                                                ; preds = %0
  %7 = call nonnull align 8 dereferenceable(8) %"class.std::basic_ostream"* @_ZSt16__ostream_insertIcSt11char_traitsIcEERSt13basic_ostreamIT_T0_ES6_PKS3_l(%"class.std::basic_ostream"* nonnull align 8 dereferenceable(8) @_ZSt4cout, i8* nonnull getelementptr inbounds ([4 x i8], [4 x i8]* @.str, i64 0, i64 0), i64 3)
  %8 = load i8*, i8** bitcast (%"class.std::basic_ostream"* @_ZSt4cout to i8**), align 8, !tbaa !9
  %9 = getelementptr i8, i8* %8, i64 -24
  %10 = bitcast i8* %9 to i64*
  %11 = load i64, i64* %10, align 8
  %12 = add nsw i64 %11, 240
  %13 = getelementptr inbounds i8, i8* bitcast (%"class.std::basic_ostream"* @_ZSt4cout to i8*), i64 %12
  %14 = bitcast i8* %13 to %"class.std::ctype"**
  %15 = load %"class.std::ctype"*, %"class.std::ctype"** %14, align 8, !tbaa !11
  %16 = icmp eq %"class.std::ctype"* %15, null
  br i1 %16, label %17, label %18

17:                                               ; preds = %6
  call void @_ZSt16__throw_bad_castv() #8
  unreachable

18:                                               ; preds = %6
  %19 = getelementptr inbounds %"class.std::ctype", %"class.std::ctype"* %15, i64 0, i32 8
  %20 = load i8, i8* %19, align 8, !tbaa !15
  %21 = icmp eq i8 %20, 0
  br i1 %21, label %25, label %22

22:                                               ; preds = %18
  %23 = getelementptr inbounds %"class.std::ctype", %"class.std::ctype"* %15, i64 0, i32 9, i64 10
  %24 = load i8, i8* %23, align 1, !tbaa !17
  br label %133

25:                                               ; preds = %18
  call void @_ZNKSt5ctypeIcE13_M_widen_initEv(%"class.std::ctype"* nonnull align 8 dereferenceable(570) %15)
  %26 = bitcast %"class.std::ctype"* %15 to i8 (%"class.std::ctype"*, i8)***
  %27 = load i8 (%"class.std::ctype"*, i8)**, i8 (%"class.std::ctype"*, i8)*** %26, align 8, !tbaa !9
  %28 = getelementptr inbounds i8 (%"class.std::ctype"*, i8)*, i8 (%"class.std::ctype"*, i8)** %27, i64 6
  %29 = load i8 (%"class.std::ctype"*, i8)*, i8 (%"class.std::ctype"*, i8)** %28, align 8
  %30 = call signext i8 %29(%"class.std::ctype"* nonnull align 8 dereferenceable(570) %15, i8 signext 10)
  br label %133

31:                                               ; preds = %0, %103
  %32 = phi i32 [ %106, %103 ], [ %4, %0 ]
  %33 = and i32 %32, 1
  %34 = icmp eq i32 %33, 0
  %35 = call nonnull align 8 dereferenceable(8) %"class.std::basic_ostream"* @_ZNSolsEi(%"class.std::basic_ostream"* nonnull align 8 dereferenceable(8) @_ZSt4cout, i32 %32)
  br i1 %34, label %70, label %36

36:                                               ; preds = %31
  %37 = call nonnull align 8 dereferenceable(8) %"class.std::basic_ostream"* @_ZSt16__ostream_insertIcSt11char_traitsIcEERSt13basic_ostreamIT_T0_ES6_PKS3_l(%"class.std::basic_ostream"* nonnull align 8 dereferenceable(8) %35, i8* nonnull getelementptr inbounds ([6 x i8], [6 x i8]* @.str.1, i64 0, i64 0), i64 5)
  %38 = load i32, i32* %1, align 4, !tbaa !5
  %39 = mul nsw i32 %38, 3
  %40 = add nsw i32 %39, 1
  store i32 %40, i32* %1, align 4, !tbaa !5
  %41 = call nonnull align 8 dereferenceable(8) %"class.std::basic_ostream"* @_ZNSolsEi(%"class.std::basic_ostream"* nonnull align 8 dereferenceable(8) @_ZSt4cout, i32 %40)
  %42 = bitcast %"class.std::basic_ostream"* %41 to i8**
  %43 = load i8*, i8** %42, align 8, !tbaa !9
  %44 = getelementptr i8, i8* %43, i64 -24
  %45 = bitcast i8* %44 to i64*
  %46 = load i64, i64* %45, align 8
  %47 = bitcast %"class.std::basic_ostream"* %41 to i8*
  %48 = add nsw i64 %46, 240
  %49 = getelementptr inbounds i8, i8* %47, i64 %48
  %50 = bitcast i8* %49 to %"class.std::ctype"**
  %51 = load %"class.std::ctype"*, %"class.std::ctype"** %50, align 8, !tbaa !11
  %52 = icmp eq %"class.std::ctype"* %51, null
  br i1 %52, label %53, label %54

53:                                               ; preds = %36
  call void @_ZSt16__throw_bad_castv() #8
  unreachable

54:                                               ; preds = %36
  %55 = getelementptr inbounds %"class.std::ctype", %"class.std::ctype"* %51, i64 0, i32 8
  %56 = load i8, i8* %55, align 8, !tbaa !15
  %57 = icmp eq i8 %56, 0
  br i1 %57, label %61, label %58

58:                                               ; preds = %54
  %59 = getelementptr inbounds %"class.std::ctype", %"class.std::ctype"* %51, i64 0, i32 9, i64 10
  %60 = load i8, i8* %59, align 1, !tbaa !17
  br label %67

61:                                               ; preds = %54
  call void @_ZNKSt5ctypeIcE13_M_widen_initEv(%"class.std::ctype"* nonnull align 8 dereferenceable(570) %51)
  %62 = bitcast %"class.std::ctype"* %51 to i8 (%"class.std::ctype"*, i8)***
  %63 = load i8 (%"class.std::ctype"*, i8)**, i8 (%"class.std::ctype"*, i8)*** %62, align 8, !tbaa !9
  %64 = getelementptr inbounds i8 (%"class.std::ctype"*, i8)*, i8 (%"class.std::ctype"*, i8)** %63, i64 6
  %65 = load i8 (%"class.std::ctype"*, i8)*, i8 (%"class.std::ctype"*, i8)** %64, align 8
  %66 = call signext i8 %65(%"class.std::ctype"* nonnull align 8 dereferenceable(570) %51, i8 signext 10)
  br label %67

67:                                               ; preds = %58, %61
  %68 = phi i8 [ %60, %58 ], [ %66, %61 ]
  %69 = call nonnull align 8 dereferenceable(8) %"class.std::basic_ostream"* @_ZNSo3putEc(%"class.std::basic_ostream"* nonnull align 8 dereferenceable(8) %41, i8 signext %68)
  br label %103

70:                                               ; preds = %31
  %71 = call nonnull align 8 dereferenceable(8) %"class.std::basic_ostream"* @_ZSt16__ostream_insertIcSt11char_traitsIcEERSt13basic_ostreamIT_T0_ES6_PKS3_l(%"class.std::basic_ostream"* nonnull align 8 dereferenceable(8) %35, i8* nonnull getelementptr inbounds ([4 x i8], [4 x i8]* @.str.2, i64 0, i64 0), i64 3)
  %72 = load i32, i32* %1, align 4, !tbaa !5
  %73 = sdiv i32 %72, 2
  store i32 %73, i32* %1, align 4, !tbaa !5
  %74 = call nonnull align 8 dereferenceable(8) %"class.std::basic_ostream"* @_ZNSolsEi(%"class.std::basic_ostream"* nonnull align 8 dereferenceable(8) @_ZSt4cout, i32 %73)
  %75 = bitcast %"class.std::basic_ostream"* %74 to i8**
  %76 = load i8*, i8** %75, align 8, !tbaa !9
  %77 = getelementptr i8, i8* %76, i64 -24
  %78 = bitcast i8* %77 to i64*
  %79 = load i64, i64* %78, align 8
  %80 = bitcast %"class.std::basic_ostream"* %74 to i8*
  %81 = add nsw i64 %79, 240
  %82 = getelementptr inbounds i8, i8* %80, i64 %81
  %83 = bitcast i8* %82 to %"class.std::ctype"**
  %84 = load %"class.std::ctype"*, %"class.std::ctype"** %83, align 8, !tbaa !11
  %85 = icmp eq %"class.std::ctype"* %84, null
  br i1 %85, label %86, label %87

86:                                               ; preds = %70
  call void @_ZSt16__throw_bad_castv() #8
  unreachable

87:                                               ; preds = %70
  %88 = getelementptr inbounds %"class.std::ctype", %"class.std::ctype"* %84, i64 0, i32 8
  %89 = load i8, i8* %88, align 8, !tbaa !15
  %90 = icmp eq i8 %89, 0
  br i1 %90, label %94, label %91

91:                                               ; preds = %87
  %92 = getelementptr inbounds %"class.std::ctype", %"class.std::ctype"* %84, i64 0, i32 9, i64 10
  %93 = load i8, i8* %92, align 1, !tbaa !17
  br label %100

94:                                               ; preds = %87
  call void @_ZNKSt5ctypeIcE13_M_widen_initEv(%"class.std::ctype"* nonnull align 8 dereferenceable(570) %84)
  %95 = bitcast %"class.std::ctype"* %84 to i8 (%"class.std::ctype"*, i8)***
  %96 = load i8 (%"class.std::ctype"*, i8)**, i8 (%"class.std::ctype"*, i8)*** %95, align 8, !tbaa !9
  %97 = getelementptr inbounds i8 (%"class.std::ctype"*, i8)*, i8 (%"class.std::ctype"*, i8)** %96, i64 6
  %98 = load i8 (%"class.std::ctype"*, i8)*, i8 (%"class.std::ctype"*, i8)** %97, align 8
  %99 = call signext i8 %98(%"class.std::ctype"* nonnull align 8 dereferenceable(570) %84, i8 signext 10)
  br label %100

100:                                              ; preds = %91, %94
  %101 = phi i8 [ %93, %91 ], [ %99, %94 ]
  %102 = call nonnull align 8 dereferenceable(8) %"class.std::basic_ostream"* @_ZNSo3putEc(%"class.std::basic_ostream"* nonnull align 8 dereferenceable(8) %74, i8 signext %101)
  br label %103

103:                                              ; preds = %100, %67
  %104 = phi %"class.std::basic_ostream"* [ %102, %100 ], [ %69, %67 ]
  %105 = call nonnull align 8 dereferenceable(8) %"class.std::basic_ostream"* @_ZNSo5flushEv(%"class.std::basic_ostream"* nonnull align 8 dereferenceable(8) %104)
  %106 = load i32, i32* %1, align 4, !tbaa !5
  %107 = icmp eq i32 %106, 1
  br i1 %107, label %108, label %31, !llvm.loop !18

108:                                              ; preds = %103
  %109 = call nonnull align 8 dereferenceable(8) %"class.std::basic_ostream"* @_ZSt16__ostream_insertIcSt11char_traitsIcEERSt13basic_ostreamIT_T0_ES6_PKS3_l(%"class.std::basic_ostream"* nonnull align 8 dereferenceable(8) @_ZSt4cout, i8* nonnull getelementptr inbounds ([4 x i8], [4 x i8]* @.str, i64 0, i64 0), i64 3)
  %110 = load i8*, i8** bitcast (%"class.std::basic_ostream"* @_ZSt4cout to i8**), align 8, !tbaa !9
  %111 = getelementptr i8, i8* %110, i64 -24
  %112 = bitcast i8* %111 to i64*
  %113 = load i64, i64* %112, align 8
  %114 = add nsw i64 %113, 240
  %115 = getelementptr inbounds i8, i8* bitcast (%"class.std::basic_ostream"* @_ZSt4cout to i8*), i64 %114
  %116 = bitcast i8* %115 to %"class.std::ctype"**
  %117 = load %"class.std::ctype"*, %"class.std::ctype"** %116, align 8, !tbaa !11
  %118 = icmp eq %"class.std::ctype"* %117, null
  br i1 %118, label %119, label %120

119:                                              ; preds = %108
  call void @_ZSt16__throw_bad_castv() #8
  unreachable

120:                                              ; preds = %108
  %121 = getelementptr inbounds %"class.std::ctype", %"class.std::ctype"* %117, i64 0, i32 8
  %122 = load i8, i8* %121, align 8, !tbaa !15
  %123 = icmp eq i8 %122, 0
  br i1 %123, label %127, label %124

124:                                              ; preds = %120
  %125 = getelementptr inbounds %"class.std::ctype", %"class.std::ctype"* %117, i64 0, i32 9, i64 10
  %126 = load i8, i8* %125, align 1, !tbaa !17
  br label %133

127:                                              ; preds = %120
  call void @_ZNKSt5ctypeIcE13_M_widen_initEv(%"class.std::ctype"* nonnull align 8 dereferenceable(570) %117)
  %128 = bitcast %"class.std::ctype"* %117 to i8 (%"class.std::ctype"*, i8)***
  %129 = load i8 (%"class.std::ctype"*, i8)**, i8 (%"class.std::ctype"*, i8)*** %128, align 8, !tbaa !9
  %130 = getelementptr inbounds i8 (%"class.std::ctype"*, i8)*, i8 (%"class.std::ctype"*, i8)** %129, i64 6
  %131 = load i8 (%"class.std::ctype"*, i8)*, i8 (%"class.std::ctype"*, i8)** %130, align 8
  %132 = call signext i8 %131(%"class.std::ctype"* nonnull align 8 dereferenceable(570) %117, i8 signext 10)
  br label %133

133:                                              ; preds = %127, %124, %25, %22
  %134 = phi i8 [ %24, %22 ], [ %30, %25 ], [ %126, %124 ], [ %132, %127 ]
  %135 = call nonnull align 8 dereferenceable(8) %"class.std::basic_ostream"* @_ZNSo3putEc(%"class.std::basic_ostream"* nonnull align 8 dereferenceable(8) @_ZSt4cout, i8 signext %134)
  %136 = call nonnull align 8 dereferenceable(8) %"class.std::basic_ostream"* @_ZNSo5flushEv(%"class.std::basic_ostream"* nonnull align 8 dereferenceable(8) %135)
  call void @llvm.lifetime.end.p0i8(i64 4, i8* nonnull %2) #7
  ret i32 0
}

; Function Attrs: argmemonly mustprogress nofree nosync nounwind willreturn
declare void @llvm.lifetime.start.p0i8(i64 immarg, i8* nocapture) #4

declare nonnull align 8 dereferenceable(16) %"class.std::basic_istream"* @_ZNSirsERi(%"class.std::basic_istream"* nonnull align 8 dereferenceable(16), i32* nonnull align 4 dereferenceable(4)) local_unnamed_addr #0

declare nonnull align 8 dereferenceable(8) %"class.std::basic_ostream"* @_ZNSolsEi(%"class.std::basic_ostream"* nonnull align 8 dereferenceable(8), i32) local_unnamed_addr #0

; Function Attrs: argmemonly mustprogress nofree nosync nounwind willreturn
declare void @llvm.lifetime.end.p0i8(i64 immarg, i8* nocapture) #4

declare nonnull align 8 dereferenceable(8) %"class.std::basic_ostream"* @_ZSt16__ostream_insertIcSt11char_traitsIcEERSt13basic_ostreamIT_T0_ES6_PKS3_l(%"class.std::basic_ostream"* nonnull align 8 dereferenceable(8), i8*, i64) local_unnamed_addr #0

declare nonnull align 8 dereferenceable(8) %"class.std::basic_ostream"* @_ZNSo3putEc(%"class.std::basic_ostream"* nonnull align 8 dereferenceable(8), i8 signext) local_unnamed_addr #0

declare nonnull align 8 dereferenceable(8) %"class.std::basic_ostream"* @_ZNSo5flushEv(%"class.std::basic_ostream"* nonnull align 8 dereferenceable(8)) local_unnamed_addr #0

; Function Attrs: noreturn
declare void @_ZSt16__throw_bad_castv() local_unnamed_addr #5

declare void @_ZNKSt5ctypeIcE13_M_widen_initEv(%"class.std::ctype"* nonnull align 8 dereferenceable(570)) local_unnamed_addr #0

; Function Attrs: sspstrong uwtable
define internal void @_GLOBAL__sub_I_3015.cpp() #6 section ".text.startup" {
  tail call void @_ZNSt8ios_base4InitC1Ev(%"class.std::ios_base::Init"* nonnull align 1 dereferenceable(1) @_ZStL8__ioinit)
  %1 = tail call i32 @__cxa_atexit(void (i8*)* bitcast (void (%"class.std::ios_base::Init"*)* @_ZNSt8ios_base4InitD1Ev to void (i8*)*), i8* getelementptr inbounds (%"class.std::ios_base::Init", %"class.std::ios_base::Init"* @_ZStL8__ioinit, i64 0, i32 0), i8* nonnull @__dso_handle) #7
  ret void
}


!llvm.module.flags = !{!0, !1, !2, !3}
!llvm.ident = !{!4}

!0 = !{i32 1, !"wchar_size", i32 4}
!1 = !{i32 7, !"PIC Level", i32 2}
!2 = !{i32 7, !"PIE Level", i32 2}
!3 = !{i32 7, !"uwtable", i32 1}
!4 = !{!"clang version 13.0.0"}
!5 = !{!6, !6, i64 0}
!6 = !{!"int", !7, i64 0}
!7 = !{!"omnipotent char", !8, i64 0}
!8 = !{!"Simple C++ TBAA"}
!9 = !{!10, !10, i64 0}
!10 = !{!"vtable pointer", !8, i64 0}
!11 = !{!12, !13, i64 240}
!12 = !{!"_ZTSSt9basic_iosIcSt11char_traitsIcEE", !13, i64 216, !7, i64 224, !14, i64 225, !13, i64 232, !13, i64 240, !13, i64 248, !13, i64 256}
!13 = !{!"any pointer", !7, i64 0}
!14 = !{!"bool", !7, i64 0}
!15 = !{!16, !7, i64 56}
!16 = !{!"_ZTSSt5ctypeIcE", !13, i64 16, !14, i64 24, !13, i64 32, !13, i64 40, !13, i64 48, !7, i64 56, !7, i64 57, !7, i64 313, !7, i64 569}
!17 = !{!7, !7, i64 0}
!18 = distinct !{!18, !19}
!19 = !{!"llvm.loop.mustprogress"}
